; Function Attrs: mustprogress nofree norecurse nosync nounwind willreturn memory(read, inaccessiblemem: none) uwtable
define hidden noundef zeroext i1 @_ZNK5clang7targets13ARMTargetInfo13supportsThumbEv(ptr nocapture noundef nonnull readonly align 8 dereferenceable(624) %0) local_unnamed_addr #7 align 2 {
  %2 = getelementptr inbounds i8, ptr %0, i64 584
  %3 = load i64, ptr %2, align 8
  %.not7.i = icmp eq i64 %3, 0
  br i1 %.not7.i, label %_ZNK4llvm9StringRef5countEc.exit.thread, label %.lr.ph.i

_ZNK4llvm9StringRef5countEc.exit.thread:          ; preds = %1
  %4 = getelementptr inbounds nuw i8, ptr %0, i64 608
  %5 = load i32, ptr %4, align 8
  %6 = icmp ugt i32 %5, 5
  br label %18

.lr.ph.i:                                         ; preds = %1
  %7 = getelementptr inbounds nuw i8, ptr %0, i64 576
  %8 = load ptr, ptr %7, align 8
  br label %9

9:                                                ; preds = %9, %.lr.ph.i
  %.09.i = phi i64 [ 0, %.lr.ph.i ], [ %14, %9 ]
  %.068.i = phi i64 [ 0, %.lr.ph.i ], [ %spec.select.i, %9 ]
  %10 = getelementptr inbounds i8, ptr %8, i64 %.09.i
  %11 = load i8, ptr %10, align 1
  %.fr = freeze i8 %11
  %12 = icmp eq i8 %.fr, 84
  %13 = zext i1 %12 to i64
  %spec.select.i = add i64 %.068.i, %13
  %14 = add nuw i64 %.09.i, 1
  %.not.i = icmp eq i64 %14, %3
  br i1 %.not.i, label %_ZNK4llvm9StringRef5countEc.exit, label %9, !llvm.loop !4

_ZNK4llvm9StringRef5countEc.exit:                 ; preds = %9
  %.not = icmp ne i64 %spec.select.i, 0
  %15 = getelementptr inbounds nuw i8, ptr %0, i64 608
  %16 = load i32, ptr %15, align 8
  %17 = icmp ugt i32 %16, 5
  %spec.select = select i1 %.not, i1 true, i1 %17
  br label %18

18:                                               ; preds = %_ZNK4llvm9StringRef5countEc.exit, %_ZNK4llvm9StringRef5countEc.exit.thread
  %19 = phi i1 [ %6, %_ZNK4llvm9StringRef5countEc.exit.thread ], [ %spec.select, %_ZNK4llvm9StringRef5countEc.exit ]
  ret i1 %19
}